target datalayout = "e-m:e-p270:32:32-p271:32:32-p272:64:64-i64:64-i128:128-f80:128-n8:16:32:64-S128"
target triple = "x86_64-pc-linux-gnu"

%struct._packet_info = type { ptr, ptr, i32, i32, %struct.nstime_t, %struct.nstime_t, %struct.nstime_t, i8, ptr, ptr, ptr, ptr, %struct._address, %struct._address, %struct._address, %struct._address, %struct._address, %struct._address, i32, ptr, i8, [3 x i8], %struct.anon, i32, i32, i32, i32, ptr, i8, ptr, ptr, i16, i16, i32, i32, i16, i32, i32, ptr, ptr, ptr, i8, i8, i16, i16, i16, i32, i16, i16, ptr, ptr, ptr, ptr, ptr, i32, i32 }
%struct.nstime_t = type { i64, i32 }
%struct._address = type { i32, i32, ptr, ptr }
%struct.anon = type { i8, [3 x i8] }

@proto_mpls = internal global i32 0, align 4
@.str.113 = private unnamed_addr constant [41 x i8] c"Data after post-stack first nibble %u as\00", align 1

; Function Attrs: null_pointer_is_valid sspstrong uwtable
define internal void @mpls_pfn_prompt(ptr noundef %0, ptr noundef %1) #0 {
  %3 = alloca ptr, align 8
  %4 = alloca ptr, align 8
  store ptr %0, ptr %3, align 8
  store ptr %1, ptr %4, align 8
  %5 = load ptr, ptr %4, align 8
  %6 = load ptr, ptr %4, align 8
  %7 = call i64 @llvm.objectsize.i64.p0(ptr %6, i1 false, i1 true, i1 true)
  %8 = load ptr, ptr %3, align 8
  %9 = getelementptr inbounds nuw %struct._packet_info, ptr %8, i32 0, i32 51
  %10 = load ptr, ptr %9, align 8
  %11 = load ptr, ptr %3, align 8
  %12 = load i32, ptr @proto_mpls, align 4
  %13 = call ptr @p_get_proto_data(ptr noundef %10, ptr noundef %11, i32 noundef %12, i32 noundef 1)
  %14 = ptrtoint ptr %13 to i64
  %15 = trunc i64 %14 to i32
  %16 = call i32 (ptr, i64, i32, i64, ptr, ...) @__snprintf_chk(ptr noundef %5, i64 noundef 200, i32 noundef 2, i64 noundef %7, ptr noundef @.str.113, i32 noundef %15)
  ret void
}